EXPORTS
	?qt_metacall@CpCategorySettingFormModel@@UAEHW4Call@QMetaObject@@HPAPAX@Z @ 1 NONAME ; int CpCategorySettingFormModel::qt_metacall(enum QMetaObject::Call, int, void * *)
	?qt_metacall@CpCategorySettingFormItemData@@UAEHW4Call@QMetaObject@@HPAPAX@Z @ 2 NONAME ; int CpCategorySettingFormItemData::qt_metacall(enum QMetaObject::Call, int, void * *)
	??1CpCategorySettingFormModel@@UAE@XZ @ 3 NONAME ; CpCategorySettingFormModel::~CpCategorySettingFormModel(void)
	?qt_metacast@CpCategorySettingFormModel@@UAEPAXPBD@Z @ 4 NONAME ; void * CpCategorySettingFormModel::qt_metacast(char const *)
	?beforeLoadingConfigPlugins@CpCategorySettingFormItemData@@EAEXAAVCpItemDataHelper@@@Z @ 5 NONAME ; void CpCategorySettingFormItemData::beforeLoadingConfigPlugins(class CpItemDataHelper &)
	?afterLoadingConfigPlugins@CpCategorySettingFormModel@@EAEXAAVCpItemDataHelper@@@Z @ 6 NONAME ; void CpCategorySettingFormModel::afterLoadingConfigPlugins(class CpItemDataHelper &)
	?trUtf8@CpCategorySettingFormModel@@SA?AVQString@@PBD0H@Z @ 7 NONAME ; class QString CpCategorySettingFormModel::trUtf8(char const *, char const *, int)
	??0CpCategorySettingFormModel@@QAE@ABVQString@@@Z @ 8 NONAME ; CpCategorySettingFormModel::CpCategorySettingFormModel(class QString const &)
	?trUtf8@CpCategorySettingFormItemData@@SA?AVQString@@PBD0@Z @ 9 NONAME ; class QString CpCategorySettingFormItemData::trUtf8(char const *, char const *)
	?tr@CpCategorySettingFormModel@@SA?AVQString@@PBD0@Z @ 10 NONAME ; class QString CpCategorySettingFormModel::tr(char const *, char const *)
	?tr@CpCategorySettingFormItemData@@SA?AVQString@@PBD0@Z @ 11 NONAME ; class QString CpCategorySettingFormItemData::tr(char const *, char const *)
	?getStaticMetaObject@CpCategorySettingFormModel@@SAABUQMetaObject@@XZ @ 12 NONAME ; struct QMetaObject const & CpCategorySettingFormModel::getStaticMetaObject(void)
	?getStaticMetaObject@CpCategorySettingFormItemData@@SAABUQMetaObject@@XZ @ 13 NONAME ; struct QMetaObject const & CpCategorySettingFormItemData::getStaticMetaObject(void)
	?initialize@CpCategorySettingFormModel@@UAEXAAVCpItemDataHelper@@@Z @ 14 NONAME ; void CpCategorySettingFormModel::initialize(class CpItemDataHelper &)
	?initialize@CpCategorySettingFormItemData@@QAEXAAVCpItemDataHelper@@@Z @ 15 NONAME ; void CpCategorySettingFormItemData::initialize(class CpItemDataHelper &)
	?tr@CpCategorySettingFormItemData@@SA?AVQString@@PBD0H@Z @ 16 NONAME ; class QString CpCategorySettingFormItemData::tr(char const *, char const *, int)
	??0CpCategorySettingFormItemData@@QAE@W4DataItemType@HbDataFormModelItem@@ABVQString@@1PBV2@@Z @ 17 NONAME ; CpCategorySettingFormItemData::CpCategorySettingFormItemData(enum HbDataFormModelItem::DataItemType, class QString const &, class QString const &, class HbDataFormModelItem const *)
	??1CpCategorySettingFormItemData@@UAE@XZ @ 18 NONAME ; CpCategorySettingFormItemData::~CpCategorySettingFormItemData(void)
	?beforeLoadingConfigPlugins@CpCategorySettingFormModel@@EAEXAAVCpItemDataHelper@@@Z @ 19 NONAME ; void CpCategorySettingFormModel::beforeLoadingConfigPlugins(class CpItemDataHelper &)
	?trUtf8@CpCategorySettingFormModel@@SA?AVQString@@PBD0@Z @ 20 NONAME ; class QString CpCategorySettingFormModel::trUtf8(char const *, char const *)
	?trUtf8@CpCategorySettingFormItemData@@SA?AVQString@@PBD0H@Z @ 21 NONAME ; class QString CpCategorySettingFormItemData::trUtf8(char const *, char const *, int)
	?staticMetaObject@CpCategorySettingFormModel@@2UQMetaObject@@B @ 22 NONAME ; struct QMetaObject const CpCategorySettingFormModel::staticMetaObject
	?afterLoadingConfigPlugins@CpCategorySettingFormItemData@@EAEXAAVCpItemDataHelper@@@Z @ 23 NONAME ; void CpCategorySettingFormItemData::afterLoadingConfigPlugins(class CpItemDataHelper &)
	?metaObject@CpCategorySettingFormModel@@UBEPBUQMetaObject@@XZ @ 24 NONAME ; struct QMetaObject const * CpCategorySettingFormModel::metaObject(void) const
	?tr@CpCategorySettingFormModel@@SA?AVQString@@PBD0H@Z @ 25 NONAME ; class QString CpCategorySettingFormModel::tr(char const *, char const *, int)
	?staticMetaObject@CpCategorySettingFormItemData@@2UQMetaObject@@B @ 26 NONAME ; struct QMetaObject const CpCategorySettingFormItemData::staticMetaObject
	?metaObject@CpCategorySettingFormItemData@@UBEPBUQMetaObject@@XZ @ 27 NONAME ; struct QMetaObject const * CpCategorySettingFormItemData::metaObject(void) const
	??0CpCategorySettingFormItemData@@QAE@ABVQString@@PBVHbDataFormModelItem@@@Z @ 28 NONAME ; CpCategorySettingFormItemData::CpCategorySettingFormItemData(class QString const &, class HbDataFormModelItem const *)
	??_ECpCategorySettingFormModel@@UAE@I@Z @ 29 NONAME ; CpCategorySettingFormModel::~CpCategorySettingFormModel(unsigned int)
	??_ECpCategorySettingFormItemData@@UAE@I@Z @ 30 NONAME ; CpCategorySettingFormItemData::~CpCategorySettingFormItemData(unsigned int)
	?qt_metacast@CpCategorySettingFormItemData@@UAEPAXPBD@Z @ 31 NONAME ; void * CpCategorySettingFormItemData::qt_metacast(char const *)

