EXPORTS
	?setKeyTouchScreenVibra@CpProfileModel@@QAEXHH@Z @ 1 NONAME ; void CpProfileModel::setKeyTouchScreenVibra(int, int)
	?tr@CpProfileModel@@SA?AVQString@@PBD0H@Z @ 2 NONAME ; class QString CpProfileModel::tr(char const *, char const *, int)
	?masterVibra@CpProfileModel@@QBE_NXZ @ 3 NONAME ; bool CpProfileModel::masterVibra(void) const
	?ringTone@CpProfileModel@@QBE?AVQString@@XZ @ 4 NONAME ; class QString CpProfileModel::ringTone(void) const
	?setProfileSettings@CpProfileModel@@QAEXHAAVCpProfileSettings@@@Z @ 5 NONAME ; void CpProfileModel::setProfileSettings(int, class CpProfileSettings &)
	?qt_metacast@CpProfileModel@@UAEPAXPBD@Z @ 6 NONAME ; void * CpProfileModel::qt_metacast(char const *)
	?setRingTone@CpProfileModel@@QAEXABVQString@@@Z @ 7 NONAME ; void CpProfileModel::setRingTone(class QString const &)
	?setReminderTone@CpProfileModel@@QAEXHABVQString@@@Z @ 8 NONAME ; void CpProfileModel::setReminderTone(int, class QString const &)
	?trUtf8@CpProfileModel@@SA?AVQString@@PBD0@Z @ 9 NONAME ; class QString CpProfileModel::trUtf8(char const *, char const *)
	?silenceMode@CpProfileModel@@QBE_NXZ @ 10 NONAME ; bool CpProfileModel::silenceMode(void) const
	?setEmailTone@CpProfileModel@@QAEXHABVQString@@@Z @ 11 NONAME ; void CpProfileModel::setEmailTone(int, class QString const &)
	?emailTone@CpProfileModel@@QBE?AVQString@@H@Z @ 12 NONAME ; class QString CpProfileModel::emailTone(int) const
	?activeProfileId@CpProfileModel@@QBEHXZ @ 13 NONAME ; int CpProfileModel::activeProfileId(void) const
	?masterVolume@CpProfileModel@@QBEHXZ @ 14 NONAME ; int CpProfileModel::masterVolume(void) const
	?notificationTone@CpProfileModel@@QBE_NH@Z @ 15 NONAME ; bool CpProfileModel::notificationTone(int) const
	?tr@CpProfileModel@@SA?AVQString@@PBD0@Z @ 16 NONAME ; class QString CpProfileModel::tr(char const *, char const *)
	?getStaticMetaObject@CpProfileModel@@SAABUQMetaObject@@XZ @ 17 NONAME ; struct QMetaObject const & CpProfileModel::getStaticMetaObject(void)
	?keyTouchScreenTone@CpProfileModel@@QBEHH@Z @ 18 NONAME ; int CpProfileModel::keyTouchScreenTone(int) const
	?reminderTone@CpProfileModel@@QBE?AVQString@@H@Z @ 19 NONAME ; class QString CpProfileModel::reminderTone(int) const
	?profileName@CpProfileModel@@QBE?AVQString@@H@Z @ 20 NONAME ; class QString CpProfileModel::profileName(int) const
	?setRingTone@CpProfileModel@@QAEXHABVQString@@@Z @ 21 NONAME ; void CpProfileModel::setRingTone(int, class QString const &)
	?setKeyTouchScreenTone@CpProfileModel@@QAEXHH@Z @ 22 NONAME ; void CpProfileModel::setKeyTouchScreenTone(int, int)
	?setMasterVolume@CpProfileModel@@QAEXH@Z @ 23 NONAME ; void CpProfileModel::setMasterVolume(int)
	?staticMetaObject@CpProfileModel@@2UQMetaObject@@B @ 24 NONAME ; struct QMetaObject const CpProfileModel::staticMetaObject
	?profileNames@CpProfileModel@@QBE?AVQStringList@@XZ @ 25 NONAME ; class QStringList CpProfileModel::profileNames(void) const
	?activateProfile@CpProfileModel@@QAEHH@Z @ 26 NONAME ; int CpProfileModel::activateProfile(int)
	?setNotificationTone@CpProfileModel@@QAEXH_N@Z @ 27 NONAME ; void CpProfileModel::setNotificationTone(int, bool)
	?metaObject@CpProfileModel@@UBEPBUQMetaObject@@XZ @ 28 NONAME ; struct QMetaObject const * CpProfileModel::metaObject(void) const
	??0CpProfileModel@@QAE@PAVQObject@@@Z @ 29 NONAME ; CpProfileModel::CpProfileModel(class QObject *)
	??1CpProfileModel@@UAE@XZ @ 30 NONAME ; CpProfileModel::~CpProfileModel(void)
	?qt_metacall@CpProfileModel@@UAEHW4Call@QMetaObject@@HPAPAX@Z @ 31 NONAME ; int CpProfileModel::qt_metacall(enum QMetaObject::Call, int, void * *)
	?profileSettings@CpProfileModel@@QAEXHAAVCpProfileSettings@@@Z @ 32 NONAME ; void CpProfileModel::profileSettings(int, class CpProfileSettings &)
	?messageTone@CpProfileModel@@QBE?AVQString@@H@Z @ 33 NONAME ; class QString CpProfileModel::messageTone(int) const
	?d_func@CpProfileModel@@ABEPBVCpProfileModelPrivate@@XZ @ 34 NONAME ; class CpProfileModelPrivate const * CpProfileModel::d_func(void) const
	?setSilenceMode@CpProfileModel@@QAEX_N@Z @ 35 NONAME ; void CpProfileModel::setSilenceMode(bool)
	?keyTouchScreenVibra@CpProfileModel@@QBEHH@Z @ 36 NONAME ; int CpProfileModel::keyTouchScreenVibra(int) const
	?d_func@CpProfileModel@@AAEPAVCpProfileModelPrivate@@XZ @ 37 NONAME ; class CpProfileModelPrivate * CpProfileModel::d_func(void)
	??_ECpProfileModel@@UAE@I@Z @ 38 NONAME ; CpProfileModel::~CpProfileModel(unsigned int)
	?ringTone@CpProfileModel@@QBE?AVQString@@H@Z @ 39 NONAME ; class QString CpProfileModel::ringTone(int) const
	?trUtf8@CpProfileModel@@SA?AVQString@@PBD0H@Z @ 40 NONAME ; class QString CpProfileModel::trUtf8(char const *, char const *, int)
	?setMessageTone@CpProfileModel@@QAEXHABVQString@@@Z @ 41 NONAME ; void CpProfileModel::setMessageTone(int, class QString const &)
	?setMasterVibra@CpProfileModel@@QAEX_N@Z @ 42 NONAME ; void CpProfileModel::setMasterVibra(bool)
	?trUtf8@CpProfileMonitor@@SA?AVQString@@PBD0H@Z @ 43 NONAME ; class QString CpProfileMonitor::trUtf8(char const *, char const *, int)
	??_ECpProfileMonitor@@UAE@I@Z @ 44 NONAME ; CpProfileMonitor::~CpProfileMonitor(unsigned int)
	?activeProfileModified@CpProfileMonitor@@IAEXH@Z @ 45 NONAME ; void CpProfileMonitor::activeProfileModified(int)
	?tr@CpProfileMonitor@@SA?AVQString@@PBD0H@Z @ 46 NONAME ; class QString CpProfileMonitor::tr(char const *, char const *, int)
	?trUtf8@CpProfileMonitor@@SA?AVQString@@PBD0@Z @ 47 NONAME ; class QString CpProfileMonitor::trUtf8(char const *, char const *)
	?staticMetaObject@CpProfileMonitor@@2UQMetaObject@@B @ 48 NONAME ; struct QMetaObject const CpProfileMonitor::staticMetaObject
	??0CpProfileMonitor@@QAE@PAVQObject@@@Z @ 49 NONAME ; CpProfileMonitor::CpProfileMonitor(class QObject *)
	?metaObject@CpProfileMonitor@@UBEPBUQMetaObject@@XZ @ 50 NONAME ; struct QMetaObject const * CpProfileMonitor::metaObject(void) const
	?d_func@CpProfileMonitor@@ABEPBVCpProfileMonitorPrivate@@XZ @ 51 NONAME ; class CpProfileMonitorPrivate const * CpProfileMonitor::d_func(void) const
	?d_func@CpProfileMonitor@@AAEPAVCpProfileMonitorPrivate@@XZ @ 52 NONAME ; class CpProfileMonitorPrivate * CpProfileMonitor::d_func(void)
	?profileActivated@CpProfileMonitor@@IAEXH@Z @ 53 NONAME ; void CpProfileMonitor::profileActivated(int)
	?tr@CpProfileMonitor@@SA?AVQString@@PBD0@Z @ 54 NONAME ; class QString CpProfileMonitor::tr(char const *, char const *)
	?getStaticMetaObject@CpProfileMonitor@@SAABUQMetaObject@@XZ @ 55 NONAME ; struct QMetaObject const & CpProfileMonitor::getStaticMetaObject(void)
	?qt_metacast@CpProfileMonitor@@UAEPAXPBD@Z @ 56 NONAME ; void * CpProfileMonitor::qt_metacast(char const *)
	??1CpProfileMonitor@@UAE@XZ @ 57 NONAME ; CpProfileMonitor::~CpProfileMonitor(void)
	?qt_metacall@CpProfileMonitor@@UAEHW4Call@QMetaObject@@HPAPAX@Z @ 58 NONAME ; int CpProfileMonitor::qt_metacall(enum QMetaObject::Call, int, void * *)

